; Listing generated by Microsoft (R) Optimizing Compiler Version 19.34.31933.0 

include listing.inc

INCLUDELIB MSVCRTD
INCLUDELIB OLDNAMES

msvcjmc	SEGMENT
__CD417A16_concurrencysal@h DB 01H
__18C11F8D_sal@h DB 01H
__BD42D05E_vadefs@h DB 01H
__2DC9DF70_vcruntime@h DB 01H
__C9149A6D_xkeycheck@h DB 01H
__94F3B4AE_yvals_core@h DB 01H
__C54FBE38_stdint@h DB 01H
__2308314D_cstdint DB 01H
__04C75F1C_corecrt@h DB 01H
__92857972_corecrt_math@h DB 01H
__A29DED85_math@h DB 01H
__494656A0_corecrt_malloc@h DB 01H
__0C5B3DCC_stddef@h DB 01H
__F1F53BCE_corecrt_search@h DB 01H
__DD5AA43A_corecrt_wstdlib@h DB 01H
__7B399007_limits@h DB 01H
__71F46169_stdlib@h DB 01H
__9E56D030_cstdlib DB 01H
__CDB0EEF0_float@h DB 01H
__D5150992_cfloat DB 01H
__1AB9F2C2_climits DB 01H
__C44F8F6B_corecrt_stdio_config@h DB 01H
__A7F89B2B_corecrt_wstdio@h DB 01H
__B5C48800_stdio@h DB 01H
__A651C215_cstdio DB 01H
__15E49872_errno@h DB 01H
__6BB4896E_vcruntime_string@h DB 01H
__184F7456_corecrt_memcpy_s@h DB 01H
__E387ED1C_corecrt_wconio@h DB 01H
__78D0C915_corecrt_wctype@h DB 01H
__02A4DD57_corecrt_wdirect@h DB 01H
__A056EFF3_corecrt_share@h DB 01H
__91FC0EDF_corecrt_wio@h DB 01H
__6619318A_corecrt_wprocess@h DB 01H
__5B29309E_corecrt_wstring@h DB 01H
__18070508_corecrt_wtime@h DB 01H
__3D2AFB26_types@h DB 01H
__72103B05_stat@h DB 01H
__4BE26BFD_wchar@h DB 01H
__3CDA1446_cwchar DB 01H
__99FA516B_intrin0@inl@h DB 01H
__8CEB98C2_intrin0@h DB 01H
__B83F831D_isa_availability@h DB 01H
__05E338F6_xtr1common DB 01H
__3B9D0A9D_cstddef DB 01H
__D7870C25_initializer_list DB 01H
__5E44C2A9_xstddef DB 01H
__B3F344F6_limits DB 01H
__E81B5085_vcruntime_new@h DB 01H
__130137D5_vcruntime_new_debug@h DB 01H
__8CF369C8_crtdbg@h DB 01H
__95C621C9_crtdefs@h DB 01H
__FEED0ABF_use_ansi@h DB 01H
__2816668F_yvals@h DB 01H
__87BD5CA6_type_traits DB 01H
__E5D9469F_malloc@h DB 01H
__C78E68C1_corecrt_terminate@h DB 01H
__510B0051_eh@h DB 01H
__1BEF3287_vcruntime_exception@h DB 01H
__5D994F5F_exception DB 01H
__7E4C13A5_new DB 01H
__5795C389_xatomic@h DB 01H
__A95B55BB_utility DB 01H
__EE76B579___msvc_iter_core@hpp DB 01H
__82377222_corecrt_memory@h DB 01H
__F787F5CD_string@h DB 01H
__D2C478D0_cstring DB 01H
__A997C6C5_xutility DB 01H
__C3CE3678_xmemory DB 01H
__FE5E3416_vector DB 01H
__D0D3A000_Peiravani_Paniz_dotProduct@cpp DB 01H
msvcjmc	ENDS
PUBLIC	?dotProduct@@YAMAEBV?$vector@MV?$allocator@M@std@@@std@@0H@Z ; dotProduct
PUBLIC	??A?$vector@MV?$allocator@M@std@@@std@@QEBAAEBM_K@Z ; std::vector<float,std::allocator<float> >::operator[]
PUBLIC	__JustMyCode_Default
PUBLIC	??_C@_02DKCKIIND@?$CFs@				; `string'
PUBLIC	??_C@_11LOCGONAA@@				; `string'
PUBLIC	??_C@_0BO@PFKOHNJC@vector?5subscript?5out?5of?5range@ ; `string'
PUBLIC	??_C@_0GB@OIADIBJN@C?3?2Program?5Files?2Microsoft?5Visu@ ; `string'
PUBLIC	??_C@_1MC@JGAHOMKA@?$AAC?$AA?3?$AA?2?$AAP?$AAr?$AAo?$AAg?$AAr?$AAa?$AAm?$AA?5?$AAF?$AAi?$AAl?$AAe@ ; `string'
PUBLIC	??_C@_1EA@LEKOKFNB@?$AA?$CC?$AAv?$AAe?$AAc?$AAt?$AAo?$AAr?$AA?5?$AAs?$AAu?$AAb?$AAs?$AAc?$AAr?$AAi@ ; `string'
EXTRN	__imp__invalid_parameter:PROC
EXTRN	__imp__CrtDbgReport:PROC
EXTRN	__CheckForDebuggerJustMyCode:PROC
EXTRN	_fltused:DWORD
;	COMDAT pdata
pdata	SEGMENT
$pdata$?dotProduct@@YAMAEBV?$vector@MV?$allocator@M@std@@@std@@0H@Z DD imagerel $LN11
	DD	imagerel $LN11+142
	DD	imagerel $unwind$?dotProduct@@YAMAEBV?$vector@MV?$allocator@M@std@@@std@@0H@Z
pdata	ENDS
;	COMDAT pdata
pdata	SEGMENT
$pdata$??A?$vector@MV?$allocator@M@std@@@std@@QEBAAEBM_K@Z DD imagerel $LN14
	DD	imagerel $LN14+159
	DD	imagerel $unwind$??A?$vector@MV?$allocator@M@std@@@std@@QEBAAEBM_K@Z
pdata	ENDS
;	COMDAT ??_C@_1EA@LEKOKFNB@?$AA?$CC?$AAv?$AAe?$AAc?$AAt?$AAo?$AAr?$AA?5?$AAs?$AAu?$AAb?$AAs?$AAc?$AAr?$AAi@
CONST	SEGMENT
??_C@_1EA@LEKOKFNB@?$AA?$CC?$AAv?$AAe?$AAc?$AAt?$AAo?$AAr?$AA?5?$AAs?$AAu?$AAb?$AAs?$AAc?$AAr?$AAi@ DB '"'
	DB	00H, 'v', 00H, 'e', 00H, 'c', 00H, 't', 00H, 'o', 00H, 'r', 00H
	DB	' ', 00H, 's', 00H, 'u', 00H, 'b', 00H, 's', 00H, 'c', 00H, 'r'
	DB	00H, 'i', 00H, 'p', 00H, 't', 00H, ' ', 00H, 'o', 00H, 'u', 00H
	DB	't', 00H, ' ', 00H, 'o', 00H, 'f', 00H, ' ', 00H, 'r', 00H, 'a'
	DB	00H, 'n', 00H, 'g', 00H, 'e', 00H, '"', 00H, 00H, 00H ; `string'
CONST	ENDS
;	COMDAT ??_C@_1MC@JGAHOMKA@?$AAC?$AA?3?$AA?2?$AAP?$AAr?$AAo?$AAg?$AAr?$AAa?$AAm?$AA?5?$AAF?$AAi?$AAl?$AAe@
CONST	SEGMENT
??_C@_1MC@JGAHOMKA@?$AAC?$AA?3?$AA?2?$AAP?$AAr?$AAo?$AAg?$AAr?$AAa?$AAm?$AA?5?$AAF?$AAi?$AAl?$AAe@ DB 'C'
	DB	00H, ':', 00H, '\', 00H, 'P', 00H, 'r', 00H, 'o', 00H, 'g', 00H
	DB	'r', 00H, 'a', 00H, 'm', 00H, ' ', 00H, 'F', 00H, 'i', 00H, 'l'
	DB	00H, 'e', 00H, 's', 00H, '\', 00H, 'M', 00H, 'i', 00H, 'c', 00H
	DB	'r', 00H, 'o', 00H, 's', 00H, 'o', 00H, 'f', 00H, 't', 00H, ' '
	DB	00H, 'V', 00H, 'i', 00H, 's', 00H, 'u', 00H, 'a', 00H, 'l', 00H
	DB	' ', 00H, 'S', 00H, 't', 00H, 'u', 00H, 'd', 00H, 'i', 00H, 'o'
	DB	00H, '\', 00H, '2', 00H, '0', 00H, '2', 00H, '2', 00H, '\', 00H
	DB	'C', 00H, 'o', 00H, 'm', 00H, 'm', 00H, 'u', 00H, 'n', 00H, 'i'
	DB	00H, 't', 00H, 'y', 00H, '\', 00H, 'V', 00H, 'C', 00H, '\', 00H
	DB	'T', 00H, 'o', 00H, 'o', 00H, 'l', 00H, 's', 00H, '\', 00H, 'M'
	DB	00H, 'S', 00H, 'V', 00H, 'C', 00H, '\', 00H, '1', 00H, '4', 00H
	DB	'.', 00H, '3', 00H, '4', 00H, '.', 00H, '3', 00H, '1', 00H, '9'
	DB	00H, '3', 00H, '3', 00H, '\', 00H, 'i', 00H, 'n', 00H, 'c', 00H
	DB	'l', 00H, 'u', 00H, 'd', 00H, 'e', 00H, '\', 00H, 'v', 00H, 'e'
	DB	00H, 'c', 00H, 't', 00H, 'o', 00H, 'r', 00H, 00H, 00H ; `string'
CONST	ENDS
;	COMDAT ??_C@_0GB@OIADIBJN@C?3?2Program?5Files?2Microsoft?5Visu@
CONST	SEGMENT
??_C@_0GB@OIADIBJN@C?3?2Program?5Files?2Microsoft?5Visu@ DB 'C:\Program F'
	DB	'iles\Microsoft Visual Studio\2022\Community\VC\Tools\MSVC\14.'
	DB	'34.31933\include\vector', 00H		; `string'
CONST	ENDS
;	COMDAT ??_C@_0BO@PFKOHNJC@vector?5subscript?5out?5of?5range@
CONST	SEGMENT
??_C@_0BO@PFKOHNJC@vector?5subscript?5out?5of?5range@ DB 'vector subscrip'
	DB	't out of range', 00H			; `string'
CONST	ENDS
;	COMDAT ??_C@_11LOCGONAA@@
CONST	SEGMENT
??_C@_11LOCGONAA@@ DB 00H, 00H				; `string'
CONST	ENDS
;	COMDAT ??_C@_02DKCKIIND@?$CFs@
CONST	SEGMENT
??_C@_02DKCKIIND@?$CFs@ DB '%s', 00H			; `string'
CONST	ENDS
;	COMDAT xdata
xdata	SEGMENT
$unwind$??A?$vector@MV?$allocator@M@std@@@std@@QEBAAEBM_K@Z DD 040a01H
	DD	08340aH
	DD	07006520aH
xdata	ENDS
;	COMDAT xdata
xdata	SEGMENT
$unwind$?dotProduct@@YAMAEBV?$vector@MV?$allocator@M@std@@@std@@0H@Z DD 0c2001H
	DD	026820H
	DD	0b7419H
	DD	0a6419H
	DD	095419H
	DD	083419H
	DD	0e0155219H
xdata	ENDS
; Function compile flags: /Odt
;	COMDAT __JustMyCode_Default
_TEXT	SEGMENT
__JustMyCode_Default PROC				; COMDAT
	ret	0
__JustMyCode_Default ENDP
_TEXT	ENDS
; Function compile flags: /Ogspy
; File C:\Program Files\Microsoft Visual Studio\2022\Community\VC\Tools\MSVC\14.34.31933\include\vector
;	COMDAT ??A?$vector@MV?$allocator@M@std@@@std@@QEBAAEBM_K@Z
_TEXT	SEGMENT
this$ = 64
_Pos$ = 72
??A?$vector@MV?$allocator@M@std@@@std@@QEBAAEBM_K@Z PROC ; std::vector<float,std::allocator<float> >::operator[], COMDAT

; 1955 :     _NODISCARD _CONSTEXPR20 const _Ty& operator[](const size_type _Pos) const noexcept /* strengthened */ {

$LN14:
	mov	QWORD PTR [rsp+8], rbx
	push	rdi
	sub	rsp, 48					; 00000030H
	mov	rbx, rcx
	mov	rdi, rdx
	lea	rcx, OFFSET FLAT:__FE5E3416_vector
	call	__CheckForDebuggerJustMyCode
	mov	rax, QWORD PTR [rbx+16]
	sub	rax, QWORD PTR [rbx+8]
	sar	rax, 2
	cmp	rdi, rax
	jb	SHORT $LN6@operator

; 1956 :         auto& _My_data = _Mypair._Myval2;
; 1957 : #if _CONTAINER_DEBUG_LEVEL > 0
; 1958 :         _STL_VERIFY(

	xor	r9d, r9d
	lea	rax, OFFSET FLAT:??_C@_0BO@PFKOHNJC@vector?5subscript?5out?5of?5range@
	mov	QWORD PTR [rsp+40], rax
	lea	rdx, OFFSET FLAT:??_C@_0GB@OIADIBJN@C?3?2Program?5Files?2Microsoft?5Visu@
	lea	rax, OFFSET FLAT:??_C@_02DKCKIIND@?$CFs@
	mov	r8d, 1959				; 000007a7H
	mov	QWORD PTR [rsp+32], rax
	lea	ecx, QWORD PTR [r9+2]
	call	QWORD PTR __imp__CrtDbgReport
	cmp	eax, 1
	jne	SHORT $LN11@operator
	int	3
$LN11@operator:
	and	QWORD PTR [rsp+32], 0
	lea	r8, OFFSET FLAT:??_C@_1MC@JGAHOMKA@?$AAC?$AA?3?$AA?2?$AAP?$AAr?$AAo?$AAg?$AAr?$AAa?$AAm?$AA?5?$AAF?$AAi?$AAl?$AAe@
	mov	r9d, 1959				; 000007a7H
	lea	rdx, OFFSET FLAT:??_C@_11LOCGONAA@@
	lea	rcx, OFFSET FLAT:??_C@_1EA@LEKOKFNB@?$AA?$CC?$AAv?$AAe?$AAc?$AAt?$AAo?$AAr?$AA?5?$AAs?$AAu?$AAb?$AAs?$AAc?$AAr?$AAi@
	call	QWORD PTR __imp__invalid_parameter
$LN6@operator:

; 1959 :             _Pos < static_cast<size_type>(_My_data._Mylast - _My_data._Myfirst), "vector subscript out of range");
; 1960 : #endif // _CONTAINER_DEBUG_LEVEL > 0
; 1961 : 
; 1962 :         return _My_data._Myfirst[_Pos];

	mov	rax, QWORD PTR [rbx+8]

; 1963 :     }

	mov	rbx, QWORD PTR [rsp+64]
	lea	rax, QWORD PTR [rax+rdi*4]
	add	rsp, 48					; 00000030H
	pop	rdi
	ret	0
??A?$vector@MV?$allocator@M@std@@@std@@QEBAAEBM_K@Z ENDP ; std::vector<float,std::allocator<float> >::operator[]
_TEXT	ENDS
; Function compile flags: /Ogspy
; File C:\Users\paniw\Desktop\Peiravani_Paniz_Final_dotProduct\Peiravani_Paniz_Final_dotProduct\Peiravani_Paniz_Final_dotProduct\Peiravani_Paniz_dotProduct.cpp
;	COMDAT ?dotProduct@@YAMAEBV?$vector@MV?$allocator@M@std@@@std@@0H@Z
_TEXT	SEGMENT
arr_1$ = 64
arr_2$ = 72
size$ = 80
?dotProduct@@YAMAEBV?$vector@MV?$allocator@M@std@@@std@@0H@Z PROC ; dotProduct, COMDAT

; 4    : float dotProduct(const std::vector<float>& arr_1, const std::vector<float>& arr_2, const int size) {

$LN11:
	mov	rax, rsp
	mov	QWORD PTR [rax+8], rbx
	mov	QWORD PTR [rax+16], rbp
	mov	QWORD PTR [rax+24], rsi
	mov	QWORD PTR [rax+32], rdi
	push	r14
	sub	rsp, 48					; 00000030H
	mov	r14, rcx
	movaps	XMMWORD PTR [rax-24], xmm6
	lea	rcx, OFFSET FLAT:__D0D3A000_Peiravani_Paniz_dotProduct@cpp
	mov	ebx, r8d
	mov	rbp, rdx
	call	__CheckForDebuggerJustMyCode
	xor	edi, edi
	xorps	xmm6, xmm6
	test	ebx, ebx
	jle	SHORT $LN3@dotProduct
	mov	esi, ebx
$LL4@dotProduct:

; 5    :     float result = 0;
; 6    : 
; 7    :     // Iterate through both vectors and calculate the dot product
; 8    :     for (int i = 0; i < size; i++) {
; 9    :         result += arr_1[i] * arr_2[i];

	mov	rdx, rdi
	mov	rcx, r14
	call	??A?$vector@MV?$allocator@M@std@@@std@@QEBAAEBM_K@Z ; std::vector<float,std::allocator<float> >::operator[]
	mov	rdx, rdi
	mov	rcx, rbp
	mov	rbx, rax
	call	??A?$vector@MV?$allocator@M@std@@@std@@QEBAAEBM_K@Z ; std::vector<float,std::allocator<float> >::operator[]
	movss	xmm1, DWORD PTR [rbx]
	inc	rdi
	mulss	xmm1, DWORD PTR [rax]
	addss	xmm6, xmm1
	sub	rsi, 1
	jne	SHORT $LL4@dotProduct
$LN3@dotProduct:

; 10   :     }
; 11   :     return result;
; 12   : }

	mov	rbx, QWORD PTR [rsp+64]
	movaps	xmm0, xmm6
	movaps	xmm6, XMMWORD PTR [rsp+32]
	mov	rbp, QWORD PTR [rsp+72]
	mov	rsi, QWORD PTR [rsp+80]
	mov	rdi, QWORD PTR [rsp+88]
	add	rsp, 48					; 00000030H
	pop	r14
	ret	0
?dotProduct@@YAMAEBV?$vector@MV?$allocator@M@std@@@std@@0H@Z ENDP ; dotProduct
_TEXT	ENDS
END
